; Function Attrs: mustprogress uwtable
define noundef i32 @u_vformatMessageWithError_77(ptr noundef %0, ptr noundef %1, i32 noundef %2, ptr noundef %3, i32 noundef %4, ptr noundef %5, ptr noundef captures(none) %6, ptr noundef %7) local_unnamed_addr #1 {
  %9 = tail call ptr @umsg_open_77(ptr noundef %1, i32 noundef %2, ptr noundef %0, ptr noundef %5, ptr noundef %7)
  %10 = tail call i32 @umsg_vformat_77(ptr noundef %9, ptr noundef %3, i32 noundef %4, ptr noundef %6, ptr noundef %7)
  %11 = icmp eq ptr %9, null
  br i1 %11, label %umsg_close_77.exit, label %12

12:                                               ; preds = %8
  %13 = load ptr, ptr %9, align 8, !tbaa !34
  %14 = getelementptr inbounds nuw i8, ptr %13, i64 8
  %15 = load ptr, ptr %14, align 8
  tail call void %15(ptr noundef nonnull align 8 dereferenceable(512) %9) #10
  br label %umsg_close_77.exit

umsg_close_77.exit:                               ; preds = %8, %12
  ret i32 %10
}